; Function Attrs: inlinehint mustprogress nounwind uwtable
define internal void @_ZN8QuantLib12_GLOBAL__N_116FdmSchemeWrapperINS_19ImplicitEulerSchemeEED0Ev(ptr noundef nonnull align 8 dereferenceable(16) %this) unnamed_addr #4 align 2 personality ptr @__gxx_personality_v0 {
entry:
  store ptr getelementptr inbounds inrange(-16, 32) (i8, ptr @_ZTVN8QuantLib12_GLOBAL__N_116FdmSchemeWrapperINS_19ImplicitEulerSchemeEEE, i64 16), ptr %this, align 8, !tbaa !33
  %scheme_.i = getelementptr inbounds nuw i8, ptr %this, i64 8
  %0 = load ptr, ptr %scheme_.i, align 8, !tbaa !3
  %cmp.not.i.i = icmp eq ptr %0, null
  br i1 %cmp.not.i.i, label %_ZN8QuantLib12_GLOBAL__N_116FdmSchemeWrapperINS_19ImplicitEulerSchemeEED2Ev.exit, label %_ZNKSt14default_deleteIN8QuantLib19ImplicitEulerSchemeEEclEPS1_.exit.i.i

_ZNKSt14default_deleteIN8QuantLib19ImplicitEulerSchemeEEclEPS1_.exit.i.i: ; preds = %entry
  tail call void @_ZN8QuantLib19ImplicitEulerSchemeD2Ev(ptr noundef nonnull align 8 dereferenceable(76) %0) #29
  tail call void @_ZdlPvm(ptr noundef nonnull %0, i64 noundef 80) #34
  br label %_ZN8QuantLib12_GLOBAL__N_116FdmSchemeWrapperINS_19ImplicitEulerSchemeEED2Ev.exit

_ZN8QuantLib12_GLOBAL__N_116FdmSchemeWrapperINS_19ImplicitEulerSchemeEED2Ev.exit: ; preds = %entry, %_ZNKSt14default_deleteIN8QuantLib19ImplicitEulerSchemeEEclEPS1_.exit.i.i
  tail call void @_ZdlPvm(ptr noundef nonnull %this, i64 noundef 16) #34
  ret void
}